(lp0
F0.4260100951427502
aF0.2722742965541861
aF0.21286621112330437
aF0.17973781033618402
aF0.1568223028222618
aF0.13975536958723675
aF0.12719351209433857
aF0.11710276810016709
aF0.10830478794938304
aF0.10053746588584227
aF0.09434061579455029
aF0.08877353645050953
aF0.08375990867178908
aF0.07882584758547265
aF0.0749241458127494
aF0.0713376534359848
aF0.06813275782232343
aF0.06525685185195237
aF0.06235484874857433
aF0.05960801393543747
aF0.05760278326161691
aF0.05564848741625217
aF0.053579355589130954
aF0.05113591066193223
aF0.04996336813924957
aF0.04770241360508953
aF0.046226061128815735
aF0.04496315056097345
aF0.043762489572958044
aF0.04234115084920944
aF0.04122546978676607
aF0.0403685856566935
aF0.038232151763055146
aF0.038312284265431144
aF0.037395778915495816
aF0.036423060159386095
aF0.03579916202657257
aF0.03425580407585483
aF0.034450077158129276
aF0.033185328205206026
aF0.03314977029531953
aF0.03245927388527109
aF0.03156677697617369
aF0.031487635703663794
aF0.03083176863127493
aF0.030269764584761577
aF0.029976512362305058
aF0.02913828031760076
aF0.028619523354667987
aF0.028741727395635318
aF0.02782528824513937
aF0.02736921434270834
aF0.027715357356296877
aF0.02736615657531284
aF0.02669219327144549
aF0.026652653510962923
aF0.026104129779426596
aF0.02583541502058568
aF0.02568608532496935
aF0.024927847140907296
aF0.025235645076513442
aF0.02415550376274276
aF0.024523561247555066
aF0.02433552938269346
aF0.023853345359873972
aF0.02338320136546967
aF0.022627313577628955
aF0.023415130391824624
aF0.02331364036350943
aF0.0229820263900234
aF0.022218611104358264
aF0.022493530931985327
aF0.0224736468694268
aF0.022193085301929556
aF0.019200322561076795
aF0.02191725304043662
aF0.02176296839608107
aF0.021572450970743614
aF0.02064571933577958
aF0.0208836784825687
aF0.020902806530371184
aF0.02043863070023595
aF0.020964222785183766
aF0.019827663624419886
aF0.020549592494382856
aF0.020350865774257983
aF0.020949829215069344
aF0.020093602916960683
a.