(lp0
I2
aI4
aI6
aI8
aI10
aI12
aI14
aI16
aI18
aI20
aI22
aI24
aI26
aI28
aI30
aI32
aI34
aI36
aI38
aI40
aI42
aI44
aI46
aI48
aI50
aI52
aI54
aI56
aI58
aI60
aI62
aI64
aI66
aI68
aI70
aI72
aI74
aI76
aI78
aI80
aI82
aI84
aI86
aI88
aI90
aI92
aI94
aI96
aI98
aI100
aI102
aI104
aI106
aI108
aI110
aI112
aI114
aI116
aI118
aI120
aI122
aI124
aI126
aI128
aI130
aI132
aI134
aI136
aI138
aI140
aI142
aI144
aI146
aI148
aI150
aI152
aI154
aI156
aI158
aI160
aI162
aI164
aI166
aI168
aI170
aI172
aI174
aI176
a.