(lp0
F0.6296875
aF0.6999526515151515
aF0.7114583333333333
aF0.7234374999999998
aF0.7335700757575758
aF0.740530303030303
aF0.7398200757575758
aF0.7527935606060607
aF0.7505208333333333
aF0.7613636363636365
aF0.7660984848484848
aF0.7735795454545454
aF0.7790246212121212
aF0.7748579545454546
aF0.7815814393939394
aF0.7884943181818183
aF0.7871212121212122
aF0.7936079545454545
aF0.796496212121212
aF0.793939393939394
aF0.7951704545454545
aF0.7971590909090909
aF0.7947443181818182
aF0.7972064393939394
aF0.7953125
aF0.7974431818181817
aF0.7962121212121211
aF0.7956912878787878
aF0.7962121212121211
aF0.7972064393939395
aF0.7953125
aF0.7981060606060606
aF0.7958806818181817
aF0.7990056818181819
aF0.8022727272727274
aF0.7996685606060606
aF0.7974431818181819
aF0.7982954545454545
aF0.7984848484848486
aF0.7999526515151516
aF0.7976325757575757
aF0.8017992424242424
aF0.7998106060606062
aF0.8010416666666667
aF0.7995738636363636
aF0.8004261363636364
aF0.7991950757575756
aF0.8010416666666668
aF0.8019412878787879
aF0.8020833333333334
aF0.8013257575757576
aF0.7987689393939393
aF0.8019886363636364
aF0.8031723484848484
aF0.8024147727272727
aF0.7995738636363637
aF0.8001420454545455
aF0.7981060606060606
aF0.8029829545454545
aF0.8032670454545455
aF0.8012310606060605
aF0.8027462121212121
aF0.8036458333333332
aF0.8003314393939396
aF0.8046401515151516
aF0.8017992424242426
aF0.8013257575757576
aF0.806060606060606
aF0.8045928030303029
aF0.8041666666666666
aF0.8042613636363637
aF0.8039299242424244
aF0.8038352272727274
aF0.8025568181818181
aF0.8056818181818179
aF0.8068181818181819
aF0.8039772727272728
aF0.8041666666666668
aF0.804498106060606
aF0.8068655303030304
aF0.807528409090909
aF0.8045928030303031
aF0.8040719696969697
aF0.8056344696969695
aF0.8069602272727273
aF0.8045928030303031
aF0.8046401515151516
aF0.8028409090909092
a.